target datalayout = "e-m:e-p270:32:32-p271:32:32-p272:64:64-i64:64-i128:128-f80:128-n8:16:32:64-S128"
target triple = "x86_64-unknown-linux-gnu"

%struct.HashMap = type { ptr, i32, i32 }
%struct.Scope = type { ptr, %struct.HashMap, %struct.HashMap }
%struct.Obj = type { ptr, ptr, ptr, ptr, i8, i32, i32, i8, i8, i8, i8, i8, ptr, ptr, i8, ptr, ptr, ptr, ptr, ptr, i32, i8, i8, %struct.StringArray }
%struct.StringArray = type { ptr, i32, i32 }
%struct.Type = type { i32, i32, i32, i8, i8, ptr, ptr, ptr, ptr, i32, ptr, ptr, ptr, i8, i8, ptr, ptr, i8, ptr }
%struct.VarScope = type { ptr, ptr, ptr, i32 }

@globals = internal global ptr null, align 8
@scope = internal global ptr @.compoundliteral, align 8
@new_unique_name.id = internal global i32 0, align 4
@.str.65 = private unnamed_addr constant [7 x i8] c".L..%d\00", align 1

; Function Attrs: nounwind uwtable
define internal ptr @push_scope(ptr noundef %name) #0 {
entry:
  %name.addr = alloca ptr, align 8
  %sc = alloca ptr, align 8
  store ptr %name, ptr %name.addr, align 8
  %call = call noalias ptr @calloc(i64 noundef 1, i64 noundef 32) #8
  store ptr %call, ptr %sc, align 8
  %0 = load ptr, ptr @scope, align 8
  %vars = getelementptr inbounds %struct.Scope, ptr %0, i32 0, i32 1
  %1 = load ptr, ptr %name.addr, align 8
  %2 = load ptr, ptr %sc, align 8
  call void @hashmap_put(ptr noundef %vars, ptr noundef %1, ptr noundef %2)
  %3 = load ptr, ptr %sc, align 8
  ret ptr %3
}

; Function Attrs: nounwind uwtable
define internal ptr @new_var(ptr noundef %name, ptr noundef %ty) #0 {
entry:
  %name.addr = alloca ptr, align 8
  %ty.addr = alloca ptr, align 8
  %var = alloca ptr, align 8
  store ptr %name, ptr %name.addr, align 8
  store ptr %ty, ptr %ty.addr, align 8
  %call = call noalias ptr @calloc(i64 noundef 1, i64 noundef 144) #8
  store ptr %call, ptr %var, align 8
  %0 = load ptr, ptr %name.addr, align 8
  %1 = load ptr, ptr %var, align 8
  %name1 = getelementptr inbounds %struct.Obj, ptr %1, i32 0, i32 1
  store ptr %0, ptr %name1, align 8
  %2 = load ptr, ptr %ty.addr, align 8
  %3 = load ptr, ptr %var, align 8
  %ty2 = getelementptr inbounds %struct.Obj, ptr %3, i32 0, i32 2
  store ptr %2, ptr %ty2, align 8
  %4 = load ptr, ptr %ty.addr, align 8
  %align = getelementptr inbounds %struct.Type, ptr %4, i32 0, i32 2
  %5 = load i32, ptr %align, align 8
  %6 = load ptr, ptr %var, align 8
  %align3 = getelementptr inbounds %struct.Obj, ptr %6, i32 0, i32 5
  store i32 %5, ptr %align3, align 4
  %7 = load ptr, ptr %var, align 8
  %8 = load ptr, ptr %name.addr, align 8
  %call4 = call ptr @push_scope(ptr noundef %8)
  %var5 = getelementptr inbounds %struct.VarScope, ptr %call4, i32 0, i32 0
  store ptr %7, ptr %var5, align 8
  %9 = load ptr, ptr %var, align 8
  ret ptr %9
}

; Function Attrs: nounwind uwtable
define internal ptr @new_gvar(ptr noundef %name, ptr noundef %ty) #0 {
entry:
  %name.addr = alloca ptr, align 8
  %ty.addr = alloca ptr, align 8
  %var = alloca ptr, align 8
  store ptr %name, ptr %name.addr, align 8
  store ptr %ty, ptr %ty.addr, align 8
  %0 = load ptr, ptr %name.addr, align 8
  %1 = load ptr, ptr %ty.addr, align 8
  %call = call ptr @new_var(ptr noundef %0, ptr noundef %1)
  store ptr %call, ptr %var, align 8
  %2 = load ptr, ptr @globals, align 8
  %3 = load ptr, ptr %var, align 8
  %next = getelementptr inbounds %struct.Obj, ptr %3, i32 0, i32 0
  store ptr %2, ptr %next, align 8
  %4 = load ptr, ptr %var, align 8
  %is_static = getelementptr inbounds %struct.Obj, ptr %4, i32 0, i32 9
  store i8 1, ptr %is_static, align 2
  %5 = load ptr, ptr %var, align 8
  %is_definition = getelementptr inbounds %struct.Obj, ptr %5, i32 0, i32 8
  store i8 1, ptr %is_definition, align 1
  %6 = load ptr, ptr %var, align 8
  store ptr %6, ptr @globals, align 8
  %7 = load ptr, ptr %var, align 8
  ret ptr %7
}

; Function Attrs: nounwind uwtable
define internal ptr @new_unique_name() #0 {
entry:
  %0 = load i32, ptr @new_unique_name.id, align 4
  %inc = add nsw i32 %0, 1
  store i32 %inc, ptr @new_unique_name.id, align 4
  %call = call ptr (ptr, ...) @format(ptr noundef @.str.65, i32 noundef %0)
  ret ptr %call
}

; Function Attrs: nounwind uwtable
define internal ptr @new_anon_gvar(ptr noundef %ty) #0 {
entry:
  %ty.addr = alloca ptr, align 8
  store ptr %ty, ptr %ty.addr, align 8
  %call = call ptr @new_unique_name()
  %0 = load ptr, ptr %ty.addr, align 8
  %call1 = call ptr @new_gvar(ptr noundef %call, ptr noundef %0)
  ret ptr %call1
}

; Function Attrs: nounwind uwtable
define internal ptr @new_string_literal(ptr noundef %p, ptr noundef %ty) #0 {
entry:
  %p.addr = alloca ptr, align 8
  %ty.addr = alloca ptr, align 8
  %var = alloca ptr, align 8
  store ptr %p, ptr %p.addr, align 8
  store ptr %ty, ptr %ty.addr, align 8
  %0 = load ptr, ptr %ty.addr, align 8
  %call = call ptr @new_anon_gvar(ptr noundef %0)
  store ptr %call, ptr %var, align 8
  %1 = load ptr, ptr %p.addr, align 8
  %2 = load ptr, ptr %var, align 8
  %init_data = getelementptr inbounds %struct.Obj, ptr %2, i32 0, i32 12
  store ptr %1, ptr %init_data, align 8
  %3 = load ptr, ptr %var, align 8
  ret ptr %3
}