; Function Attrs: nounwind uwtable
define internal fastcc noundef ptr @new_string_literal(ptr noundef %p, ptr noundef %ty) unnamed_addr #0 {
entry:
  %0 = load i32, ptr @new_unique_name.id, align 4
  %inc.i.i = add nsw i32 %0, 1
  store i32 %inc.i.i, ptr @new_unique_name.id, align 4
  %call.i.i = tail call ptr (ptr, ...) @format(ptr noundef nonnull @.str.65, i32 noundef %0) #13
  %call.i.i.i = tail call noalias dereferenceable_or_null(144) ptr @calloc(i64 noundef 1, i64 noundef 144) #14
  %name1.i.i.i = getelementptr inbounds %struct.Obj, ptr %call.i.i.i, i64 0, i32 1
  store ptr %call.i.i, ptr %name1.i.i.i, align 8
  %ty2.i.i.i = getelementptr inbounds %struct.Obj, ptr %call.i.i.i, i64 0, i32 2
  store ptr %ty, ptr %ty2.i.i.i, align 8
  %align.i.i.i = getelementptr inbounds %struct.Type, ptr %ty, i64 0, i32 2
  %1 = load i32, ptr %align.i.i.i, align 8
  %align3.i.i.i = getelementptr inbounds %struct.Obj, ptr %call.i.i.i, i64 0, i32 5
  store i32 %1, ptr %align3.i.i.i, align 4
  %call.i.i.i.i = tail call noalias dereferenceable_or_null(32) ptr @calloc(i64 noundef 1, i64 noundef 32) #14
  %2 = load ptr, ptr @scope, align 8
  %vars.i.i.i.i = getelementptr inbounds %struct.Scope, ptr %2, i64 0, i32 1
  tail call void @hashmap_put(ptr noundef nonnull %vars.i.i.i.i, ptr noundef %call.i.i, ptr noundef %call.i.i.i.i) #13
  store ptr %call.i.i.i, ptr %call.i.i.i.i, align 8
  %3 = load ptr, ptr @globals, align 8
  store ptr %3, ptr %call.i.i.i, align 8
  %is_static.i.i = getelementptr inbounds %struct.Obj, ptr %call.i.i.i, i64 0, i32 9
  store i8 1, ptr %is_static.i.i, align 2
  %is_definition.i.i = getelementptr inbounds %struct.Obj, ptr %call.i.i.i, i64 0, i32 8
  store i8 1, ptr %is_definition.i.i, align 1
  store ptr %call.i.i.i, ptr @globals, align 8
  %init_data = getelementptr inbounds %struct.Obj, ptr %call.i.i.i, i64 0, i32 12
  store ptr %p, ptr %init_data, align 8
  ret ptr %call.i.i.i
}